BL51 BANKED LINKER/LOCATER V6.22                                                        02/05/2018  15:45:19  PAGE 1


BL51 BANKED LINKER/LOCATER V6.22, INVOKED BY:
E:\KEIL_V5\C51\BIN\BL51.EXE .\Objects\shizhong.obj TO .\Objects\test PRINT (.\Listings\test.m51)


MEMORY MODEL: SMALL


INPUT MODULES INCLUDED:
  .\Objects\shizhong.obj (SHIZHONG)
  E:\KEIL_V5\C51\LIB\C51S.LIB (?C_STARTUP)
  E:\KEIL_V5\C51\LIB\C51S.LIB (?C?SCDIV)


LINK MAP OF MODULE:  .\Objects\test (SHIZHONG)


            TYPE    BASE      LENGTH    RELOCATION   SEGMENT NAME
            -----------------------------------------------------

            * * * * * * *   D A T A   M E M O R Y   * * * * * * *
            REG     0000H     0008H     ABSOLUTE     "REG BANK 0"
            DATA    0008H     000EH     UNIT         ?DT?SHIZHONG
            DATA    0016H     0001H     UNIT         _DATA_GROUP_
                    0017H     0009H                  *** GAP ***
            BIT     0020H.0   0000H.2   UNIT         ?BI?SHIZHONG
                    0020H.2   0000H.6                *** GAP ***
            IDATA   0021H     0001H     UNIT         ?STACK

            * * * * * * *   C O D E   M E M O R Y   * * * * * * *
            CODE    0000H     0003H     ABSOLUTE     
            CODE    0003H     0003H     ABSOLUTE     
            CODE    0006H     02F7H     UNIT         ?PR?KEYSCAN?SHIZHONG
            CODE    02FDH     0091H     UNIT         ?PR?_WRITE_WEEK?SHIZHONG
            CODE    038EH     0082H     UNIT         ?PR?MAIN?SHIZHONG
            CODE    0410H     006EH     UNIT         ?PR?INIT?SHIZHONG
            CODE    047EH     0027H     UNIT         ?PR?_DELAY?SHIZHONG
            CODE    04A5H     0024H     UNIT         ?PR?_WRITE_SFM?SHIZHONG
            CODE    04C9H     0024H     UNIT         ?PR?_WRITE_NYR?SHIZHONG
            CODE    04EDH     0024H     UNIT         ?PR?_WRITE_DS?SHIZHONG
            CODE    0511H     0022H     UNIT         ?C?LIB_CODE
            CODE    0533H     001DH     UNIT         ?CO?SHIZHONG
            CODE    0550H     001AH     UNIT         ?PR?_READ_DS?SHIZHONG
            CODE    056AH     0019H     UNIT         ?PR?_WRITE_DATE?SHIZHONG
            CODE    0583H     0016H     UNIT         ?PR?READ_ALARM?SHIZHONG
            CODE    0599H     0015H     UNIT         ?PR?EXTER?SHIZHONG
            CODE    05AEH     0011H     UNIT         ?PR?_WRITE_COM?SHIZHONG
            CODE    05BFH     0010H     UNIT         ?PR?SET_TIME?SHIZHONG
            CODE    05CFH     000CH     UNIT         ?PR?DI?SHIZHONG
            CODE    05DBH     000CH     UNIT         ?C_C51STARTUP



OVERLAY MAP OF MODULE:   .\Objects\test (SHIZHONG)


SEGMENT                            DATA_GROUP 
  +--> CALLED SEGMENT            START    LENGTH
------------------------------------------------
BL51 BANKED LINKER/LOCATER V6.22                                                      02/05/2018  15:45:19  PAGE 2


?PR?EXTER?SHIZHONG               0016H    0001H
  +--> ?PR?_READ_DS?SHIZHONG

*** NEW ROOT ***************************************************

?C_C51STARTUP                    -----    -----
  +--> ?PR?MAIN?SHIZHONG

?PR?MAIN?SHIZHONG                -----    -----
  +--> ?PR?INIT?SHIZHONG
  +--> ?PR?KEYSCAN?SHIZHONG
  +--> ?PR?DI?SHIZHONG
  +--> ?PR?_DELAY?SHIZHONG
  +--> ?PR?_READ_DS?SHIZHONG
  +--> ?PR?_WRITE_SFM?SHIZHONG
  +--> ?PR?_WRITE_WEEK?SHIZHONG
  +--> ?PR?_WRITE_NYR?SHIZHONG

?PR?INIT?SHIZHONG                -----    -----
  +--> ?PR?_WRITE_DS?SHIZHONG
  +--> ?PR?SET_TIME?SHIZHONG
  +--> ?PR?_WRITE_COM?SHIZHONG
  +--> ?CO?SHIZHONG
  +--> ?PR?_WRITE_DATE?SHIZHONG
  +--> ?PR?_DELAY?SHIZHONG

?PR?SET_TIME?SHIZHONG            -----    -----
  +--> ?PR?_WRITE_DS?SHIZHONG

?PR?_WRITE_COM?SHIZHONG          -----    -----
  +--> ?PR?_DELAY?SHIZHONG

?PR?_DELAY?SHIZHONG              -----    -----
  +--> ?PR?_WRITE_DATE?SHIZHONG

?PR?KEYSCAN?SHIZHONG             -----    -----
  +--> ?PR?_DELAY?SHIZHONG
  +--> ?PR?DI?SHIZHONG
  +--> ?PR?_WRITE_COM?SHIZHONG
  +--> ?PR?_WRITE_DS?SHIZHONG
  +--> ?PR?_WRITE_SFM?SHIZHONG
  +--> ?PR?_WRITE_WEEK?SHIZHONG
  +--> ?PR?_WRITE_NYR?SHIZHONG
  +--> ?PR?_WRITE_DATE?SHIZHONG
  +--> ?PR?READ_ALARM?SHIZHONG

?PR?DI?SHIZHONG                  -----    -----
  +--> ?PR?_DELAY?SHIZHONG

?PR?_WRITE_SFM?SHIZHONG          -----    -----
  +--> ?PR?_WRITE_DATE?SHIZHONG

?PR?_WRITE_WEEK?SHIZHONG         -----    -----
  +--> ?PR?_WRITE_COM?SHIZHONG
  +--> ?PR?_DELAY?SHIZHONG
  +--> ?PR?_WRITE_DATE?SHIZHONG

BL51 BANKED LINKER/LOCATER V6.22                                                      02/05/2018  15:45:19  PAGE 3


?PR?_WRITE_NYR?SHIZHONG          -----    -----
  +--> ?PR?_WRITE_DATE?SHIZHONG

?PR?READ_ALARM?SHIZHONG          -----    -----
  +--> ?PR?_READ_DS?SHIZHONG



SYMBOL TABLE OF MODULE:  .\Objects\test (SHIZHONG)

  VALUE           TYPE          NAME
  ----------------------------------

  -------         MODULE        SHIZHONG
  C:0000H         SYMBOL        _ICE_DUMMY_
  D:0080H         PUBLIC        P0
  D:0090H         PUBLIC        P1
  D:00A0H         PUBLIC        P2
  D:00B0H         PUBLIC        P3
  B:00A8H.7       PUBLIC        EA
  B:00A0H.7       PUBLIC        lcden
  D:0008H         PUBLIC        amiao
  C:0533H         PUBLIC        table
  D:00A8H         PUBLIC        IE
  C:0583H         PUBLIC        read_alarm
  C:0487H         PUBLIC        _delay
  D:00B8H         PUBLIC        IP
  D:0009H         PUBLIC        afen
  D:000AH         PUBLIC        flag
  B:00A0H.0       PUBLIC        beep
  B:00A0H.4       PUBLIC        s1
  B:00A0H.3       PUBLIC        s2
  B:00A0H.2       PUBLIC        s3
  C:038EH         PUBLIC        main
  D:000BH         PUBLIC        ashi
  B:00A0H.1       PUBLIC        s4
  D:000CH         PUBLIC        miao
  D:000DH         PUBLIC        month
  C:0599H         PUBLIC        exter
  D:000EH         PUBLIC        count
  B:00B0H.5       PUBLIC        dsas
  D:000FH         PUBLIC        week
  C:0572H         PUBLIC        _write_date
  B:00B0H.4       PUBLIC        dscs
  B:00B0H.7       PUBLIC        dsds
  D:0010H         PUBLIC        year
  D:0098H         PUBLIC        SCON
  D:0088H         PUBLIC        TCON
  C:0410H         PUBLIC        init
  D:0011H         PUBLIC        fen
  C:0543H         PUBLIC        table1
  C:02FDH         PUBLIC        _write_week
  D:0012H         PUBLIC        day
  B:00B0H.6       PUBLIC        dsrw
  D:0013H         PUBLIC        shi
  C:05CFH         PUBLIC        di
  B:0020H.0       PUBLIC        flag1
BL51 BANKED LINKER/LOCATER V6.22                                                      02/05/2018  15:45:19  PAGE 4


  B:00A8H.2       PUBLIC        EX1
  B:0088H.2       PUBLIC        IT1
  C:05AEH         PUBLIC        _write_com
  C:04A9H         PUBLIC        _write_sfm
  C:0550H         PUBLIC        _read_ds
  D:0014H         PUBLIC        t0_num
  B:0020H.1       PUBLIC        flag_ri
  C:05BFH         PUBLIC        set_time
  B:00A0H.6       PUBLIC        rs
  C:04FAH         PUBLIC        _write_ds
  D:00C8H         PUBLIC        T2CON
  C:04CDH         PUBLIC        _write_nyr
  B:00A0H.5       PUBLIC        rw
  C:0006H         PUBLIC        keyscan
  D:0015H         PUBLIC        s1num
  D:00D0H         PUBLIC        PSW
  C:0480H         SYMBOL        L?0143
  C:0483H         SYMBOL        L?0144
  -------         PROC          L?0142
  -------         ENDPROC       L?0142
  C:0480H         SYMBOL        L?0143
  C:0483H         SYMBOL        L?0144
  -------         PROC          _DELAY
  D:0006H         SYMBOL        z
  -------         DO            
  D:0006H         SYMBOL        x
  D:0004H         SYMBOL        y
  -------         ENDDO         
  C:0487H         LINE#         3
  C:0487H         LINE#         4
  C:0487H         LINE#         6
  C:0490H         LINE#         7
  C:04A4H         LINE#         8
  -------         ENDPROC       _DELAY
  -------         PROC          DI
  C:05CFH         LINE#         9
  C:05CFH         LINE#         10
  C:05CFH         LINE#         11
  C:05D1H         LINE#         12
  C:05D8H         LINE#         13
  C:05DAH         LINE#         14
  -------         ENDPROC       DI
  -------         PROC          _WRITE_COM
  D:0007H         SYMBOL        com
  C:05AEH         LINE#         15
  C:05AEH         LINE#         16
  C:05AEH         LINE#         17
  C:05B0H         LINE#         18
  C:05B2H         LINE#         19
  C:05B4H         LINE#         20
  C:05B7H         LINE#         21
  C:05B9H         LINE#         22
  C:05BCH         LINE#         23
  C:05BEH         LINE#         24
  -------         ENDPROC       _WRITE_COM
  -------         PROC          L?0146
  -------         ENDPROC       L?0146
BL51 BANKED LINKER/LOCATER V6.22                                                      02/05/2018  15:45:19  PAGE 5


  -------         PROC          _WRITE_DATE
  D:0007H         SYMBOL        date
  C:0572H         LINE#         26
  C:0572H         LINE#         27
  C:0572H         LINE#         28
  C:0574H         LINE#         29
  C:0576H         LINE#         30
  C:0578H         LINE#         31
  C:057BH         LINE#         32
  C:057DH         LINE#         33
  C:0580H         LINE#         34
  C:0582H         LINE#         35
  -------         ENDPROC       _WRITE_DATE
  -------         PROC          INIT
  -------         DO            
  D:0003H         SYMBOL        num
  -------         ENDDO         
  C:0410H         LINE#         36
  C:0410H         LINE#         37
  C:0410H         LINE#         39
  C:0412H         LINE#         40
  C:0414H         LINE#         41
  C:0416H         LINE#         42
  C:0418H         LINE#         43
  C:041BH         LINE#         44
  C:041DH         LINE#         45
  C:0420H         LINE#         46
  C:0422H         LINE#         48
  C:0429H         LINE#         49
  C:0430H         LINE#         51
  C:0433H         LINE#         53
  C:0438H         LINE#         54
  C:043DH         LINE#         55
  C:0442H         LINE#         56
  C:0447H         LINE#         57
  C:044CH         LINE#         58
  C:044EH         LINE#         59
  C:044EH         LINE#         60
  C:0457H         LINE#         61
  C:045EH         LINE#         62
  C:0462H         LINE#         63
  C:0467H         LINE#         64
  C:0469H         LINE#         65
  C:0469H         LINE#         66
  C:0472H         LINE#         67
  C:0479H         LINE#         68
  C:047DH         LINE#         69
  -------         ENDPROC       INIT
  C:04A5H         SYMBOL        L?0148
  -------         PROC          L?0147
  -------         ENDPROC       L?0147
  C:04A5H         SYMBOL        L?0148
  -------         PROC          _WRITE_SFM
  D:0007H         SYMBOL        add
  D:0005H         SYMBOL        date
  -------         DO            
  D:0003H         SYMBOL        shi
BL51 BANKED LINKER/LOCATER V6.22                                                      02/05/2018  15:45:19  PAGE 6


  D:0002H         SYMBOL        ge
  -------         ENDDO         
  C:04A9H         LINE#         70
  C:04A9H         LINE#         71
  C:04A9H         LINE#         73
  C:04B1H         LINE#         74
  C:04BCH         LINE#         75
  C:04BFH         LINE#         76
  C:04C2H         LINE#         77
  -------         ENDPROC       _WRITE_SFM
  C:04C9H         SYMBOL        L?0150
  -------         PROC          L?0149
  -------         ENDPROC       L?0149
  C:04C9H         SYMBOL        L?0150
  -------         PROC          _WRITE_NYR
  D:0007H         SYMBOL        add
  D:0005H         SYMBOL        date
  -------         DO            
  D:0003H         SYMBOL        shi
  D:0002H         SYMBOL        ge
  -------         ENDDO         
  C:04CDH         LINE#         79
  C:04CDH         LINE#         80
  C:04CDH         LINE#         82
  C:04D5H         LINE#         83
  C:04E0H         LINE#         84
  C:04E3H         LINE#         85
  C:04E6H         LINE#         86
  -------         ENDPROC       _WRITE_NYR
  -------         PROC          _WRITE_WEEK
  D:0003H         SYMBOL        we
  C:02FDH         LINE#         88
  C:02FFH         LINE#         89
  C:02FFH         LINE#         90
  C:0304H         LINE#         91
  C:0331H         LINE#         92
  C:0331H         LINE#         93
  C:0336H         LINE#         94
  C:0338H         LINE#         95
  C:0338H         LINE#         96
  C:033BH         LINE#         97
  C:033EH         LINE#         98
  C:0343H         LINE#         99
  C:0345H         LINE#         100
  C:0348H         LINE#         101
  C:034DH         LINE#         102
  C:0352H         LINE#         103
  C:0354H         LINE#         104
  C:0356H         LINE#         105
  C:0359H         LINE#         106
  C:035EH         LINE#         107
  C:0360H         LINE#         108
  C:0362H         LINE#         109
  C:0367H         LINE#         110
  C:036CH         LINE#         111
  C:036EH         LINE#         112
  C:0370H         LINE#         113
BL51 BANKED LINKER/LOCATER V6.22                                                      02/05/2018  15:45:19  PAGE 7


  C:0375H         LINE#         114
  C:037AH         LINE#         115
  C:037CH         LINE#         116
  C:037EH         LINE#         117
  C:0383H         LINE#         118
  C:0388H         LINE#         119
  C:038DH         LINE#         120
  C:038DH         LINE#         121
  C:038DH         LINE#         122
  -------         ENDPROC       _WRITE_WEEK
  -------         PROC          KEYSCAN
  C:0006H         LINE#         123
  C:0006H         LINE#         124
  C:0006H         LINE#         125
  C:0009H         LINE#         126
  C:0009H         LINE#         127
  C:0015H         LINE#         128
  C:0015H         LINE#         129
  C:0018H         LINE#         130
  C:0024H         LINE#         131
  C:0024H         LINE#         132
  C:0030H         LINE#         133
  C:0033H         LINE#         134
  C:0035H         LINE#         135
  C:0035H         LINE#         136
  C:0035H         LINE#         137
  C:0035H         LINE#         138
  C:003BH         LINE#         139
  C:003BH         LINE#         140
  C:003EH         LINE#         141
  C:0044H         LINE#         142
  C:0044H         LINE#         143
  C:0046H         LINE#         144
  C:0049H         LINE#         145
  C:004EH         LINE#         146
  C:0051H         LINE#         147
  C:0054H         LINE#         148
  C:005AH         LINE#         149
  C:008BH         LINE#         150
  C:008BH         LINE#         151
  C:0090H         LINE#         152
  C:0092H         LINE#         153
  C:0094H         LINE#         154
  C:0096H         LINE#         155
  C:0098H         LINE#         156
  C:009AH         LINE#         157
  C:009CH         LINE#         158
  C:009EH         LINE#         159
  C:00A0H         LINE#         160
  C:00A2H         LINE#         161
  C:00A4H         LINE#         162
  C:00A6H         LINE#         163
  C:00A8H         LINE#         164
  C:00ADH         LINE#         165
  C:00AFH         LINE#         166
  C:00B2H         LINE#         167
  C:00B7H         LINE#         168
BL51 BANKED LINKER/LOCATER V6.22                                                      02/05/2018  15:45:19  PAGE 8


  C:00BAH         LINE#         169
  C:00C0H         LINE#         170
  C:00C7H         LINE#         171
  C:00CEH         LINE#         172
  C:00D5H         LINE#         173
  C:00DCH         LINE#         174
  C:00E3H         LINE#         175
  C:00EAH         LINE#         176
  C:00EAH         LINE#         177
  C:00EAH         LINE#         178
  C:00EAH         LINE#         179
  C:00EAH         LINE#         180
  C:00F1H         LINE#         181
  C:00F1H         LINE#         182
  C:00F7H         LINE#         183
  C:00F7H         LINE#         184
  C:00FEH         LINE#         185
  C:0104H         LINE#         186
  C:0104H         LINE#         187
  C:010AH         LINE#         188
  C:0138H         LINE#         189
  C:0138H         LINE#         190
  C:013AH         LINE#         191
  C:013FH         LINE#         192
  C:0142H         LINE#         193
  C:0145H         LINE#         194
  C:0147H         LINE#         195
  C:0149H         LINE#         196
  C:014BH         LINE#         197
  C:0150H         LINE#         198
  C:0153H         LINE#         199
  C:015AH         LINE#         200
  C:015CH         LINE#         201
  C:015EH         LINE#         202
  C:0160H         LINE#         203
  C:0165H         LINE#         204
  C:0168H         LINE#         205
  C:016FH         LINE#         206
  C:0171H         LINE#         207
  C:0173H         LINE#         208
  C:0175H         LINE#         209
  C:017AH         LINE#         210
  C:017DH         LINE#         211
  C:0182H         LINE#         212
  C:0184H         LINE#         213
  C:0186H         LINE#         214
  C:0188H         LINE#         215
  C:018DH         LINE#         216
  C:0190H         LINE#         217
  C:0193H         LINE#         218
  C:0195H         LINE#         219
  C:0197H         LINE#         220
  C:0199H         LINE#         221
  C:019EH         LINE#         222
  C:01A1H         LINE#         223
  C:01A8H         LINE#         224
  C:01AAH         LINE#         225
BL51 BANKED LINKER/LOCATER V6.22                                                      02/05/2018  15:45:19  PAGE 9


  C:01ACH         LINE#         226
  C:01AEH         LINE#         227
  C:01B3H         LINE#         228
  C:01B6H         LINE#         229
  C:01BDH         LINE#         230
  C:01C2H         LINE#         231
  C:01C2H         LINE#         232
  C:01C2H         LINE#         233
  C:01C2H         LINE#         234
  C:01C2H         LINE#         235
  C:01C8H         LINE#         236
  C:01C8H         LINE#         237
  C:01CFH         LINE#         238
  C:01D5H         LINE#         239
  C:01D5H         LINE#         240
  C:01DBH         LINE#         241
  C:0209H         LINE#         242
  C:0209H         LINE#         243
  C:020BH         LINE#         244
  C:0210H         LINE#         245
  C:0213H         LINE#         246
  C:0216H         LINE#         247
  C:0218H         LINE#         248
  C:021AH         LINE#         249
  C:021CH         LINE#         250
  C:0221H         LINE#         251
  C:0224H         LINE#         252
  C:022BH         LINE#         253
  C:022DH         LINE#         254
  C:022FH         LINE#         255
  C:0231H         LINE#         256
  C:0236H         LINE#         257
  C:0239H         LINE#         258
  C:0240H         LINE#         259
  C:0242H         LINE#         260
  C:0244H         LINE#         261
  C:0247H         LINE#         262
  C:0247H         LINE#         263
  C:024AH         LINE#         264
  C:024FH         LINE#         265
  C:0251H         LINE#         266
  C:0253H         LINE#         267
  C:0256H         LINE#         268
  C:0256H         LINE#         269
  C:0259H         LINE#         270
  C:025CH         LINE#         271
  C:025EH         LINE#         272
  C:0260H         LINE#         273
  C:0263H         LINE#         274
  C:0263H         LINE#         275
  C:0266H         LINE#         276
  C:026DH         LINE#         277
  C:026FH         LINE#         278
  C:0271H         LINE#         279
  C:0273H         LINE#         280
  C:0278H         LINE#         281
  C:027BH         LINE#         282
BL51 BANKED LINKER/LOCATER V6.22                                                      02/05/2018  15:45:19  PAGE 10


  C:0282H         LINE#         283
  C:0287H         LINE#         284
  C:0287H         LINE#         285
  C:0287H         LINE#         286
  C:0287H         LINE#         287
  C:0287H         LINE#         288
  C:0287H         LINE#         289
  C:028AH         LINE#         290
  C:028AH         LINE#         291
  C:028DH         LINE#         292
  C:0290H         LINE#         293
  C:0290H         LINE#         294
  C:0292H         LINE#         295
  C:0298H         LINE#         296
  C:029BH         LINE#         297
  C:029BH         LINE#         298
  C:029EH         LINE#         299
  C:02A3H         LINE#         300
  C:02A8H         LINE#         301
  C:02ADH         LINE#         302
  C:02B2H         LINE#         303
  C:02B9H         LINE#         304
  C:02C0H         LINE#         305
  C:02C7H         LINE#         306
  C:02C7H         LINE#         308
  C:02C7H         LINE#         309
  C:02CAH         LINE#         310
  C:02CDH         LINE#         311
  C:02D0H         LINE#         312
  C:02D3H         LINE#         313
  C:02D8H         LINE#         314
  C:02DDH         LINE#         315
  C:02E2H         LINE#         316
  C:02E7H         LINE#         317
  C:02EEH         LINE#         318
  C:02F5H         LINE#         319
  C:02FCH         LINE#         320
  C:02FCH         LINE#         321
  C:02FCH         LINE#         322
  C:02FCH         LINE#         323
  -------         ENDPROC       KEYSCAN
  -------         PROC          L?0145
  -------         ENDPROC       L?0145
  -------         PROC          _WRITE_DS
  D:0007H         SYMBOL        add
  D:0005H         SYMBOL        date
  C:04FAH         LINE#         325
  C:04FAH         LINE#         326
  C:04FAH         LINE#         327
  C:04FCH         LINE#         328
  C:04FEH         LINE#         329
  C:0500H         LINE#         330
  C:0502H         LINE#         331
  C:0504H         LINE#         332
  C:0506H         LINE#         333
  C:0508H         LINE#         334
  C:050AH         LINE#         335
BL51 BANKED LINKER/LOCATER V6.22                                                      02/05/2018  15:45:19  PAGE 11


  C:050CH         LINE#         336
  C:050EH         LINE#         337
  C:0510H         LINE#         338
  -------         ENDPROC       _WRITE_DS
  -------         PROC          _READ_DS
  D:0007H         SYMBOL        add
  -------         DO            
  D:0007H         SYMBOL        ds_date
  -------         ENDDO         
  C:0550H         LINE#         340
  C:0550H         LINE#         341
  C:0550H         LINE#         343
  C:0552H         LINE#         344
  C:0554H         LINE#         345
  C:0556H         LINE#         346
  C:0558H         LINE#         347
  C:055AH         LINE#         348
  C:055CH         LINE#         349
  C:055EH         LINE#         350
  C:0561H         LINE#         351
  C:0563H         LINE#         352
  C:0565H         LINE#         353
  C:0567H         LINE#         354
  C:0569H         LINE#         355
  C:0569H         LINE#         356
  -------         ENDPROC       _READ_DS
  -------         PROC          SET_TIME
  C:05BFH         LINE#         358
  C:05BFH         LINE#         359
  C:05BFH         LINE#         360
  C:05C5H         LINE#         361
  C:05C5H         LINE#         362
  C:05C5H         LINE#         363
  C:05C5H         LINE#         364
  C:05C8H         LINE#         365
  C:05C8H         LINE#         366
  C:05C8H         LINE#         367
  C:05C8H         LINE#         368
  C:05CBH         LINE#         369
  -------         ENDPROC       SET_TIME
  -------         PROC          READ_ALARM
  C:0583H         LINE#         372
  C:0583H         LINE#         373
  C:0583H         LINE#         374
  C:058AH         LINE#         375
  C:0591H         LINE#         376
  C:0598H         LINE#         377
  -------         ENDPROC       READ_ALARM
  -------         PROC          MAIN
  C:038EH         LINE#         378
  C:038EH         LINE#         379
  C:038EH         LINE#         380
  C:0391H         LINE#         381
  C:0391H         LINE#         382
  C:0391H         LINE#         383
  C:0394H         LINE#         384
  C:0397H         LINE#         385
BL51 BANKED LINKER/LOCATER V6.22                                                      02/05/2018  15:45:19  PAGE 12


  C:0397H         LINE#         386
  C:039AH         LINE#         387
  C:03A1H         LINE#         388
  C:03A4H         LINE#         389
  C:03ABH         LINE#         390
  C:03ABH         LINE#         391
  C:03B2H         LINE#         392
  C:03B2H         LINE#         393
  C:03B5H         LINE#         394
  C:03BCH         LINE#         395
  C:03C3H         LINE#         396
  C:03CAH         LINE#         397
  C:03D1H         LINE#         398
  C:03D8H         LINE#         399
  C:03DFH         LINE#         400
  C:03E6H         LINE#         401
  C:03E9H         LINE#         402
  C:03F0H         LINE#         403
  C:03F7H         LINE#         404
  C:03FCH         LINE#         405
  C:0403H         LINE#         406
  C:040AH         LINE#         407
  C:040DH         LINE#         408
  C:040DH         LINE#         409
  -------         ENDPROC       MAIN
  -------         PROC          EXTER
  -------         DO            
  D:0016H         SYMBOL        c
  -------         ENDDO         
  C:0599H         LINE#         412
  C:05A0H         LINE#         414
  C:05A2H         LINE#         415
  C:05A9H         LINE#         416
  -------         ENDPROC       EXTER
  -------         ENDMOD        SHIZHONG

  -------         MODULE        ?C?SCDIV
  C:0511H         PUBLIC        ?C?SCDIV
  -------         ENDMOD        ?C?SCDIV

Program Size: data=24.2 xdata=0 code=1511
LINK/LOCATE RUN COMPLETE.  0 WARNING(S),  0 ERROR(S)
